Certificate:
    Data:
        Version: 3 (0x2)
        Serial Number: 11352113428982226694 (0x9d8acf04806d5f06)
    Signature Algorithm: sha1WithRSAEncryption
        Issuer: C=DE, ST=Bavaria, L=Munich, O=MIT-xperts GmbH, OU=HBBTV-DEMO-CA, CN=itv.mit-xperts.com/emailAddress=info@mit-xperts.com
        Validity
            Not Before: Oct 22 11:08:42 2017 GMT
            Not After : Oct 21 11:08:42 2022 GMT
        Subject: C=DE, ST=Bavaria, L=Munich, O=MIT-xperts GmbH, OU=TEST CA, CN=testbox.mit-xperts.com/emailAddress=info@mit-xperts.com
        Subject Public Key Info:
            Public Key Algorithm: rsaEncryption
                Public-Key: (2048 bit)
                Modulus:
                    00:b8:1a:72:16:77:53:31:b6:cd:59:0c:2b:7a:24:
                    f4:d5:d2:6b:c5:9f:e6:6b:c2:a1:3f:e1:61:4d:01:
                    aa:ad:45:a0:a1:68:fd:b5:35:0d:47:e7:93:45:35:
                    8a:35:0e:5d:80:84:30:cd:2b:53:14:93:ea:ea:e8:
                    b6:4e:5a:6f:17:8a:e3:01:03:f7:ec:de:e0:4d:12:
                    5a:1a:f5:66:28:00:46:f7:a3:34:b5:e0:01:be:77:
                    5c:aa:e3:57:62:36:5e:05:db:2b:35:7f:5d:2c:e2:
                    05:bf:1f:6e:d4:1e:5d:86:d4:18:1b:f5:9c:75:c8:
                    56:47:60:8b:63:18:aa:53:97:92:3c:7c:ef:cc:42:
                    d5:85:be:aa:0a:f6:b6:34:53:16:07:a5:2e:93:9d:
                    f7:3b:02:ba:d0:30:db:0e:16:ee:34:d7:93:7c:26:
                    e0:c3:b6:2c:cd:c6:ca:bc:b0:e2:b6:32:04:19:35:
                    eb:8e:83:e4:93:fb:c8:eb:25:1f:02:6f:14:6e:bd:
                    e8:df:85:93:36:40:c7:c1:78:00:a3:17:2c:50:18:
                    19:f8:51:99:32:b3:8e:98:e6:55:c9:0b:1e:e7:e9:
                    98:b1:d6:9f:b2:f6:a3:6b:26:31:1d:ba:9f:4e:f6:
                    af:55:22:34:bc:e8:ad:70:3f:3e:b6:26:a6:95:97:
                    a4:7b
                Exponent: 65537 (0x10001)
        X509v3 extensions:
            X509v3 Basic Constraints: 
                CA:FALSE
            Netscape Comment: 
                OpenSSL Generated Certificate
            X509v3 Subject Key Identifier: 
                42:37:EC:ED:44:83:9C:DE:21:75:DF:4C:82:19:B9:01:00:E2:BE:A1
            X509v3 Authority Key Identifier: 
                keyid:C4:6E:4F:F3:A1:11:B8:FC:CF:F9:AB:B6:7D:12:BF:2B:28:08:0F:72

    Signature Algorithm: sha1WithRSAEncryption
         50:70:0f:05:fa:0b:bc:1f:e4:ac:24:e0:05:98:6c:c3:16:cb:
         ba:d4:02:07:c8:43:1b:7a:cf:b2:92:6c:0f:74:d4:1e:14:94:
         95:6c:47:ba:5c:52:04:c7:cd:28:cb:f5:94:a0:35:49:7f:f8:
         fb:67:a9:92:9c:fc:db:97:8e:e3:bb:b4:48:bb:26:4a:55:dd:
         cd:fb:0e:b7:41:8b:a9:b0:7d:21:03:a7:4f:1b:b6:ff:7c:ff:
         82:d3:5a:1d:49:43:a3:62:50:7f:6e:02:7c:60:05:41:5b:fe:
         d8:5a:7c:fb:70:79:0e:f2:af:b8:72:04:19:1e:80:db:b5:1a:
         ff:00:51:ef:c3:9f:d6:37:70:bc:c0:44:80:37:8d:e7:e4:79:
         af:41:e3:0a:df:c0:e4:e0:dd:1b:d8:fc:a7:ec:29:61:06:8c:
         59:9e:80:da:23:8c:58:47:60:bd:09:d0:79:6d:81:e6:00:fd:
         98:e5:75:80:28:78:1c:26:0c:5d:ff:da:a6:e5:99:12:86:9f:
         9b:aa:9d:d5:0f:92:78:1e:03:fc:b6:ec:9c:34:0d:d6:ec:ea:
         ad:38:fc:26:0e:c2:d6:1e:79:28:d3:1e:60:40:98:58:12:a2:
         a9:ec:ed:c4:17:4b:18:48:e4:a8:26:5a:ae:75:0d:60:47:f3:
         5c:33:db:a7
-----BEGIN CERTIFICATE-----
MIIFxjCCBK6gAwIBAgIQBO3Fh6CPTeglY1J12W6VRDANBgkqhkiG9w0BAQsFADBeMQswCQYDVQQG
EwJVUzEVMBMGA1UEChMMRGlnaUNlcnQgSW5jMRkwFwYDVQQLExB3d3cuZGlnaWNlcnQuY29tMR0w
GwYDVQQDExRSYXBpZFNTTCBSU0EgQ0EgMjAxODAeFw0yMDAyMjkwMDAwMDBaFw0yMTAyMjgxMjAw
MDBaMB8xHTAbBgNVBAMTFHd3dy53aHNoNHUtcGFuZWwuY29tMIIBIjANBgkqhkiG9w0BAQEFAAOC
AQ8AMIIBCgKCAQEAu/FMdbmfaqLYbrhdRVfb5rh4ce3SNawZJVqNIsof7Glt+FI+TMFQ79whvlAC
+qWpnwMidE2H9agEm0UPTnEmy6OuUgq0G/PHBIOt6XBTOcvJFcFYpuvTmk4pj7ZhVgUWmXPQDQcR
OG9P0cZ1VECIsD0/qRQvkDCw2ofjc0MfieVPxw3b+rmIaWRZ6Sy3t5JvFCl/PaBtalWT0S1MwCzw
lYoVJKJGBEFL63DIkPmVAAfl3wTvPMO9eMxp9dy3DMPhfWfc+bwRCv8ON2A2lOQaSZTB0K3ukxVS
xmqf50kaFNuAuUIazJ3I5TR9SlZtFN4nOw9plZ9EYLIYdiSpkWVsbQIDAQABo4ICvTCCArkwHwYD
VR0jBBgwFoAUU8oXWfxrwAMhLxqu5KqoHIJW2nUwHQYDVR0OBBYEFLedeZ1HXbFrXEVc29VQuKV2
UccmMDEGA1UdEQQqMCiCFHd3dy53aHNoNHUtcGFuZWwuY29tghB3aHNoNHUtcGFuZWwuY29tMA4G
A1UdDwEB/wQEAwIFoDAdBgNVHSUEFjAUBggrBgEFBQcDAQYIKwYBBQUHAwIwPgYDVR0fBDcwNTAz
oDGgL4YtaHR0cDovL2NkcC5yYXBpZHNzbC5jb20vUmFwaWRTU0xSU0FDQTIwMTguY3JsMEwGA1Ud
IARFMEMwNwYJYIZIAYb9bAECMCowKAYIKwYBBQUHAgEWHGh0dHBzOi8vd3d3LmRpZ2ljZXJ0LmNv
bS9DUFMwCAYGZ4EMAQIBMHUGCCsGAQUFBwEBBGkwZzAmBggrBgEFBQcwAYYaaHR0cDovL3N0YXR1
cy5yYXBpZHNzbC5jb20wPQYIKwYBBQUHMAKGMWh0dHA6Ly9jYWNlcnRzLnJhcGlkc3NsLmNvbS9S
YXBpZFNTTFJTQUNBMjAxOC5jcnQwCQYDVR0TBAIwADCCAQMGCisGAQQB1nkCBAIEgfQEgfEA7wB2
APZclC/RdzAiFFQYCDCUVo7jTRMZM7/fDC8gC8xO8WTjAAABcJBdqq4AAAQDAEcwRQIhAJiiL3tu
pj5OobcH/trqXJgF4hH4nmlC7QhZ53V5lkLKAiAInyMkcq0c7CuIVcOzp4ISd86jegWusIA0+yoE
8rVRJAB1AFzcQ5L+5qtFRLFemtRW5hA3+9X6R9yhc5SyXub2xw7KAAABcJBdqwMAAAQDAEYwRAIg
WLx44b1hvB/7MvT7BaeUtnbCZpgSDZF65WV+y4GUYgcCIAbjuIabnbkL2AGd/ONvRb69aP5UPxhl
gxjx1jV9ebOjMA0GCSqGSIb3DQEBCwUAA4IBAQCEcLLOQQcNvrchNCQY5hdELmOHXWNcMRdGn7Zs
TBSXFoyA2I+H3E5R/dL1PL1cSn3KOm8QgpIae5WBLrBZcPd8HkwR4pwU8C9IKMxnQgRKx9doXGFB
lj1PUQfRzsRpA0tOg/OTFGb3DJxNuOx+a31NSUVc0+3WXmkUEbKAdA8hIwZFll7qhkwu7QJ3MJUU
aivuFqe5v2uLwAz0wffoOZyyoDc9dhS+NOaiaItHs8U/AEn2K723S8dW4/F0Emc/jYJG/A3Q9JMA
M/CieP0Wb1MlmNOk3wdJNFObIBXeV9ApgMmTDCpQKzFv5OfhJglw57Sxgvceb0CYo70zk7VuBaSq
-----END CERTIFICATE-----